; Function Attrs: nounwind uwtable
define ptr @ff_null_get_audio_buffer(ptr noundef readonly captures(none) %0, i32 noundef %1) local_unnamed_addr #0 {
  %3 = getelementptr inbounds nuw i8, ptr %0, i64 16
  %4 = load ptr, ptr %3, align 8, !tbaa !4
  %5 = getelementptr inbounds nuw i8, ptr %4, i64 56
  %6 = load ptr, ptr %5, align 8, !tbaa !19
  %7 = load ptr, ptr %6, align 8, !tbaa !29
  %8 = getelementptr inbounds nuw i8, ptr %7, i64 24
  %9 = load ptr, ptr %8, align 8, !tbaa !31
  %10 = getelementptr inbounds nuw i8, ptr %9, i64 16
  %11 = load ptr, ptr %10, align 8, !tbaa !32
  %.not.i = icmp eq ptr %11, null
  br i1 %.not.i, label %.thread.i, label %12

12:                                               ; preds = %2
  %13 = tail call ptr %11(ptr noundef nonnull %7, i32 noundef %1) #5
  %.not8.i = icmp eq ptr %13, null
  br i1 %.not8.i, label %.thread.i, label %ff_get_audio_buffer.exit

.thread.i:                                        ; preds = %12, %2
  %14 = tail call ptr @ff_default_get_audio_buffer(ptr noundef nonnull %7, i32 noundef %1)
  br label %ff_get_audio_buffer.exit

ff_get_audio_buffer.exit:                         ; preds = %12, %.thread.i
  %.1.i = phi ptr [ %13, %12 ], [ %14, %.thread.i ]
  ret ptr %.1.i
}